target datalayout = "e-m:e-p270:32:32-p271:32:32-p272:64:64-i64:64-i128:128-f80:128-n8:16:32:64-S128"
target triple = "x86_64-pc-linux-gnu"

%struct._cms_iccprofile_struct = type { ptr, ptr, %struct.tm, i32, i32, i32, i32, i32, i32, i32, i32, i32, i32, i64, i32, %union.cmsProfileID, i32, [100 x i32], [100 x i32], [100 x i32], [100 x i32], [100 x i32], [100 x ptr], [100 x ptr], i32, ptr }
%struct.tm = type { i32, i32, i32, i32, i32, i32, i32, i32, i32, i64, ptr }
%union.cmsProfileID = type { [4 x i32] }

; Function Attrs: nounwind uwtable
define internal i32 @BaseToBase(i32 noundef %0, i32 noundef %1, i32 noundef %2) #0 {
  %4 = alloca i32, align 4
  %5 = alloca i32, align 4
  %6 = alloca i32, align 4
  %7 = alloca [100 x i8], align 16
  %8 = alloca i32, align 4
  %9 = alloca i32, align 4
  %10 = alloca i32, align 4
  store i32 %0, ptr %4, align 4
  store i32 %1, ptr %5, align 4
  store i32 %2, ptr %6, align 4
  store i32 0, ptr %9, align 4
  br label %11

11:                                               ; preds = %30, %3
  %12 = load i32, ptr %4, align 4
  %13 = icmp ugt i32 %12, 0
  br i1 %13, label %14, label %17

14:                                               ; preds = %11
  %15 = load i32, ptr %9, align 4
  %16 = icmp slt i32 %15, 100
  br label %17

17:                                               ; preds = %14, %11
  %18 = phi i1 [ false, %11 ], [ %16, %14 ]
  br i1 %18, label %19, label %33

19:                                               ; preds = %17
  %20 = load i32, ptr %4, align 4
  %21 = load i32, ptr %5, align 4
  %22 = urem i32 %20, %21
  %23 = trunc i32 %22 to i8
  %24 = load i32, ptr %9, align 4
  %25 = sext i32 %24 to i64
  %26 = getelementptr inbounds [100 x i8], ptr %7, i64 0, i64 %25
  store i8 %23, ptr %26, align 1
  %27 = load i32, ptr %5, align 4
  %28 = load i32, ptr %4, align 4
  %29 = udiv i32 %28, %27
  store i32 %29, ptr %4, align 4
  br label %30

30:                                               ; preds = %19
  %31 = load i32, ptr %9, align 4
  %32 = add nsw i32 %31, 1
  store i32 %32, ptr %9, align 4
  br label %11, !llvm.loop !17

33:                                               ; preds = %17
  %34 = load i32, ptr %9, align 4
  %35 = sub nsw i32 %34, 1
  store i32 %35, ptr %8, align 4
  store i32 0, ptr %10, align 4
  br label %36

36:                                               ; preds = %49, %33
  %37 = load i32, ptr %8, align 4
  %38 = icmp sge i32 %37, 0
  br i1 %38, label %39, label %52

39:                                               ; preds = %36
  %40 = load i32, ptr %10, align 4
  %41 = load i32, ptr %6, align 4
  %42 = mul i32 %40, %41
  %43 = load i32, ptr %8, align 4
  %44 = sext i32 %43 to i64
  %45 = getelementptr inbounds [100 x i8], ptr %7, i64 0, i64 %44
  %46 = load i8, ptr %45, align 1
  %47 = sext i8 %46 to i32
  %48 = add i32 %42, %47
  store i32 %48, ptr %10, align 4
  br label %49

49:                                               ; preds = %39
  %50 = load i32, ptr %8, align 4
  %51 = add nsw i32 %50, -1
  store i32 %51, ptr %8, align 4
  br label %36, !llvm.loop !18

52:                                               ; preds = %36
  %53 = load i32, ptr %10, align 4
  ret i32 %53
}

; Function Attrs: nounwind uwtable
define hidden void @cmsSetProfileVersion(ptr noundef %0, double noundef %1) #0 {
  %3 = alloca ptr, align 8
  %4 = alloca double, align 8
  %5 = alloca ptr, align 8
  store ptr %0, ptr %3, align 8
  store double %1, ptr %4, align 8
  %6 = load ptr, ptr %3, align 8
  store ptr %6, ptr %5, align 8
  %7 = load double, ptr %4, align 8
  %8 = call double @llvm.fmuladd.f64(double %7, double 1.000000e+02, double 5.000000e-01)
  %9 = call double @llvm.floor.f64(double %8)
  %10 = fptoui double %9 to i32
  %11 = call i32 @BaseToBase(i32 noundef %10, i32 noundef 10, i32 noundef 16)
  %12 = shl i32 %11, 16
  %13 = load ptr, ptr %5, align 8
  %14 = getelementptr inbounds %struct._cms_iccprofile_struct, ptr %13, i32 0, i32 4
  store i32 %12, ptr %14, align 4
  ret void
}