; Function Attrs: nofree norecurse nosync nounwind memory(argmem: write) uwtable
define hidden void @cmsSetProfileVersion(ptr nocapture noundef writeonly %0, double noundef %1) local_unnamed_addr #14 {
  %3 = alloca [100 x i8], align 16
  %4 = tail call double @llvm.fmuladd.f64(double %1, double 1.000000e+02, double 5.000000e-01)
  %5 = tail call double @llvm.floor.f64(double %4)
  %6 = fptoui double %5 to i32
  call void @llvm.lifetime.start.p0(i64 100, ptr nonnull %3)
  %.not.i = icmp eq i32 %6, 0
  br i1 %.not.i, label %BaseToBase.exit, label %.lr.ph.i

.lr.ph.i:                                         ; preds = %2, %.lr.ph.i
  %indvars.iv.i = phi i64 [ %indvars.iv.next.i, %.lr.ph.i ], [ 0, %2 ]
  %.01718.i = phi i32 [ %10, %.lr.ph.i ], [ %6, %2 ]
  %7 = urem i32 %.01718.i, 10
  %8 = trunc nuw nsw i32 %7 to i8
  %9 = getelementptr inbounds [100 x i8], ptr %3, i64 0, i64 %indvars.iv.i
  store i8 %8, ptr %9, align 1
  %10 = udiv i32 %.01718.i, 10
  %indvars.iv.next.i = add nuw nsw i64 %indvars.iv.i, 1
  %11 = icmp ugt i32 %.01718.i, 9
  %12 = icmp ult i64 %indvars.iv.i, 99
  %13 = and i1 %12, %11
  br i1 %13, label %.lr.ph.i, label %.lr.ph22.i, !llvm.loop !17

.lr.ph22.i:                                       ; preds = %.lr.ph.i, %.lr.ph22.i
  %indvars.iv26.i = phi i64 [ %indvars.iv.next27.i, %.lr.ph22.i ], [ %indvars.iv.next.i, %.lr.ph.i ]
  %.021.i = phi i32 [ %18, %.lr.ph22.i ], [ 0, %.lr.ph.i ]
  %indvars.iv.next27.i = add nsw i64 %indvars.iv26.i, -1
  %14 = shl i32 %.021.i, 4
  %15 = getelementptr inbounds [100 x i8], ptr %3, i64 0, i64 %indvars.iv.next27.i
  %16 = load i8, ptr %15, align 1
  %17 = sext i8 %16 to i32
  %18 = add i32 %14, %17
  %19 = icmp ugt i64 %indvars.iv26.i, 1
  br i1 %19, label %.lr.ph22.i, label %BaseToBase.exit.loopexit, !llvm.loop !18

BaseToBase.exit.loopexit:                         ; preds = %.lr.ph22.i
  %20 = shl i32 %18, 16
  br label %BaseToBase.exit

BaseToBase.exit:                                  ; preds = %BaseToBase.exit.loopexit, %2
  %.0.lcssa.i = phi i32 [ 0, %2 ], [ %20, %BaseToBase.exit.loopexit ]
  call void @llvm.lifetime.end.p0(i64 100, ptr nonnull %3)
  %21 = getelementptr inbounds i8, ptr %0, i64 76
  store i32 %.0.lcssa.i, ptr %21, align 4
  ret void
}